target datalayout = "e-m:e-p270:32:32-p271:32:32-p272:64:64-i64:64-i128:128-f80:128-n8:16:32:64-S128"
target triple = "x86_64-pc-linux-gnu"

%struct._GList = type { ptr, ptr, ptr }
%struct._extcap_callback_info_t = type { ptr, ptr, ptr, ptr, ptr }

; Function Attrs: null_pointer_is_valid sspstrong uwtable
define internal zeroext i1 @cb_reload_preference(ptr noundef byval(%struct._extcap_callback_info_t) align 8 %0) #0 {
  %2 = alloca ptr, align 8
  %3 = alloca ptr, align 8
  %4 = alloca ptr, align 8
  %5 = alloca ptr, align 8
  call void @llvm.lifetime.start.p0(i64 8, ptr %2) #9
  store ptr null, ptr %2, align 8
  call void @llvm.lifetime.start.p0(i64 8, ptr %3) #9
  store ptr null, ptr %3, align 8
  call void @llvm.lifetime.start.p0(i64 8, ptr %4) #9
  %6 = getelementptr inbounds nuw %struct._extcap_callback_info_t, ptr %0, i32 0, i32 3
  %7 = load ptr, ptr %6, align 8
  store ptr %7, ptr %4, align 8
  %8 = getelementptr inbounds nuw %struct._extcap_callback_info_t, ptr %0, i32 0, i32 2
  %9 = load ptr, ptr %8, align 8
  %10 = call ptr @extcap_parse_values(ptr noundef %9)
  store ptr %10, ptr %2, align 8
  %11 = load ptr, ptr %2, align 8
  %12 = call ptr @g_list_first(ptr noundef %11)
  store ptr %12, ptr %3, align 8
  br label %13

13:                                               ; preds = %32, %1
  %14 = load ptr, ptr %3, align 8
  %15 = icmp ne ptr %14, null
  br i1 %15, label %16, label %34

16:                                               ; preds = %13
  call void @llvm.lifetime.start.p0(i64 8, ptr %5) #9
  %17 = load ptr, ptr %3, align 8
  %18 = getelementptr inbounds nuw %struct._GList, ptr %17, i32 0, i32 0
  %19 = load ptr, ptr %18, align 8
  store ptr %19, ptr %5, align 8
  %20 = load ptr, ptr %4, align 8
  %21 = load ptr, ptr %20, align 8
  %22 = load ptr, ptr %5, align 8
  %23 = call ptr @g_list_append(ptr noundef %21, ptr noundef %22)
  %24 = load ptr, ptr %4, align 8
  store ptr %23, ptr %24, align 8
  %25 = load ptr, ptr %3, align 8
  %26 = icmp ne ptr %25, null
  br i1 %26, label %27, label %31

27:                                               ; preds = %16
  %28 = load ptr, ptr %3, align 8
  %29 = getelementptr inbounds nuw %struct._GList, ptr %28, i32 0, i32 1
  %30 = load ptr, ptr %29, align 8
  br label %32

31:                                               ; preds = %16
  br label %32

32:                                               ; preds = %31, %27
  %33 = phi ptr [ %30, %27 ], [ null, %31 ]
  store ptr %33, ptr %3, align 8
  call void @llvm.lifetime.end.p0(i64 8, ptr %5) #9
  br label %13, !llvm.loop !19

34:                                               ; preds = %13
  %35 = load ptr, ptr %2, align 8
  call void @g_list_free(ptr noundef %35)
  call void @llvm.lifetime.end.p0(i64 8, ptr %4) #9
  call void @llvm.lifetime.end.p0(i64 8, ptr %3) #9
  call void @llvm.lifetime.end.p0(i64 8, ptr %2) #9
  ret i1 false
}