; Function Attrs: null_pointer_is_valid sspstrong uwtable
define internal noundef zeroext i1 @cb_reload_preference(ptr noundef readonly byval(%struct._extcap_callback_info_t) align 8 captures(none) %0) #0 {
  %2 = getelementptr inbounds nuw i8, ptr %0, i64 24
  %3 = load ptr, ptr %2, align 8
  %4 = getelementptr inbounds nuw i8, ptr %0, i64 16
  %5 = load ptr, ptr %4, align 8
  %6 = tail call ptr @extcap_parse_values(ptr noundef %5)
  %7 = tail call ptr @g_list_first(ptr noundef %6)
  %.not9 = icmp eq ptr %7, null
  br i1 %.not9, label %._crit_edge, label %.lr.ph.preheader

.lr.ph.preheader:                                 ; preds = %1
  %.pre = load ptr, ptr %3, align 8
  br label %.lr.ph

.lr.ph:                                           ; preds = %.lr.ph.preheader, %.lr.ph
  %8 = phi ptr [ %10, %.lr.ph ], [ %.pre, %.lr.ph.preheader ]
  %.010 = phi ptr [ %12, %.lr.ph ], [ %7, %.lr.ph.preheader ]
  %9 = load ptr, ptr %.010, align 8
  %10 = tail call ptr @g_list_append(ptr noundef %8, ptr noundef %9)
  store ptr %10, ptr %3, align 8
  %11 = getelementptr inbounds nuw i8, ptr %.010, i64 8
  %12 = load ptr, ptr %11, align 8
  %.not = icmp eq ptr %12, null
  br i1 %.not, label %._crit_edge, label %.lr.ph, !llvm.loop !28

._crit_edge:                                      ; preds = %.lr.ph, %1
  tail call void @g_list_free(ptr noundef %6)
  ret i1 false
}